target datalayout = "e-m:e-p270:32:32-p271:32:32-p272:64:64-i64:64-i128:128-f80:128-n8:16:32:64-S128"
target triple = "x86_64-pc-linux-gnu"

%struct.UCaseProps = type { ptr, ptr, ptr, ptr, %struct.UTrie2, [4 x i8] }
%struct.UTrie2 = type { ptr, ptr, ptr, i32, i32, i16, i16, i32, i32, i32, i32, ptr, i32, i8, i8, i16, ptr }

; Function Attrs: inlinehint mustprogress nounwind uwtable
define internal noundef i32 @_ZL10getDotTypei(i32 noundef %0) #1 {
  %2 = alloca i32, align 4
  %3 = alloca i32, align 4
  %4 = alloca i16, align 2
  %5 = alloca i32, align 4
  %6 = alloca ptr, align 8
  store i32 %0, ptr %3, align 4, !tbaa !11
  call void @llvm.lifetime.start.p0(i64 2, ptr %4) #5
  %7 = load ptr, ptr getelementptr inbounds nuw (%struct.UCaseProps, ptr @_ZL21ucase_props_singleton, i32 0, i32 4), align 8, !tbaa !19
  %8 = load i32, ptr %3, align 4, !tbaa !11
  %9 = icmp ult i32 %8, 55296
  br i1 %9, label %10, label %23

10:                                               ; preds = %1
  %11 = load ptr, ptr getelementptr inbounds nuw (%struct.UCaseProps, ptr @_ZL21ucase_props_singleton, i32 0, i32 4), align 8, !tbaa !19
  %12 = load i32, ptr %3, align 4, !tbaa !11
  %13 = ashr i32 %12, 5
  %14 = add nsw i32 0, %13
  %15 = sext i32 %14 to i64
  %16 = getelementptr inbounds i16, ptr %11, i64 %15
  %17 = load i16, ptr %16, align 2, !tbaa !25
  %18 = zext i16 %17 to i32
  %19 = shl i32 %18, 2
  %20 = load i32, ptr %3, align 4, !tbaa !11
  %21 = and i32 %20, 31
  %22 = add nsw i32 %19, %21
  br label %78

23:                                               ; preds = %1
  %24 = load i32, ptr %3, align 4, !tbaa !11
  %25 = icmp ule i32 %24, 65535
  br i1 %25, label %26, label %42

26:                                               ; preds = %23
  %27 = load ptr, ptr getelementptr inbounds nuw (%struct.UCaseProps, ptr @_ZL21ucase_props_singleton, i32 0, i32 4), align 8, !tbaa !19
  %28 = load i32, ptr %3, align 4, !tbaa !11
  %29 = icmp sle i32 %28, 56319
  %30 = select i1 %29, i32 320, i32 0
  %31 = load i32, ptr %3, align 4, !tbaa !11
  %32 = ashr i32 %31, 5
  %33 = add nsw i32 %30, %32
  %34 = sext i32 %33 to i64
  %35 = getelementptr inbounds i16, ptr %27, i64 %34
  %36 = load i16, ptr %35, align 2, !tbaa !25
  %37 = zext i16 %36 to i32
  %38 = shl i32 %37, 2
  %39 = load i32, ptr %3, align 4, !tbaa !11
  %40 = and i32 %39, 31
  %41 = add nsw i32 %38, %40
  br label %76

42:                                               ; preds = %23
  %43 = load i32, ptr %3, align 4, !tbaa !11
  %44 = icmp ugt i32 %43, 1114111
  br i1 %44, label %45, label %46

45:                                               ; preds = %42
  br label %74

46:                                               ; preds = %42
  %47 = load i32, ptr %3, align 4, !tbaa !11
  %48 = icmp sge i32 %47, 919552
  br i1 %48, label %49, label %50

49:                                               ; preds = %46
  br label %72

50:                                               ; preds = %46
  %51 = load ptr, ptr getelementptr inbounds nuw (%struct.UCaseProps, ptr @_ZL21ucase_props_singleton, i32 0, i32 4), align 8, !tbaa !19
  %52 = load ptr, ptr getelementptr inbounds nuw (%struct.UCaseProps, ptr @_ZL21ucase_props_singleton, i32 0, i32 4), align 8, !tbaa !19
  %53 = load i32, ptr %3, align 4, !tbaa !11
  %54 = ashr i32 %53, 11
  %55 = add nsw i32 2080, %54
  %56 = sext i32 %55 to i64
  %57 = getelementptr inbounds i16, ptr %52, i64 %56
  %58 = load i16, ptr %57, align 2, !tbaa !25
  %59 = zext i16 %58 to i32
  %60 = load i32, ptr %3, align 4, !tbaa !11
  %61 = ashr i32 %60, 5
  %62 = and i32 %61, 63
  %63 = add nsw i32 %59, %62
  %64 = sext i32 %63 to i64
  %65 = getelementptr inbounds i16, ptr %51, i64 %64
  %66 = load i16, ptr %65, align 2, !tbaa !25
  %67 = zext i16 %66 to i32
  %68 = shl i32 %67, 2
  %69 = load i32, ptr %3, align 4, !tbaa !11
  %70 = and i32 %69, 31
  %71 = add nsw i32 %68, %70
  br label %72

72:                                               ; preds = %50, %49
  %73 = phi i32 [ 13368, %49 ], [ %71, %50 ]
  br label %74

74:                                               ; preds = %72, %45
  %75 = phi i32 [ 3596, %45 ], [ %73, %72 ]
  br label %76

76:                                               ; preds = %74, %26
  %77 = phi i32 [ %41, %26 ], [ %75, %74 ]
  br label %78

78:                                               ; preds = %76, %10
  %79 = phi i32 [ %22, %10 ], [ %77, %76 ]
  %80 = sext i32 %79 to i64
  %81 = getelementptr inbounds i16, ptr %7, i64 %80
  %82 = load i16, ptr %81, align 2, !tbaa !25
  store i16 %82, ptr %4, align 2, !tbaa !25
  %83 = load i16, ptr %4, align 2, !tbaa !25
  %84 = zext i16 %83 to i32
  %85 = and i32 %84, 8
  %86 = icmp ne i32 %85, 0
  br i1 %86, label %91, label %87

87:                                               ; preds = %78
  %88 = load i16, ptr %4, align 2, !tbaa !25
  %89 = zext i16 %88 to i32
  %90 = and i32 %89, 96
  store i32 %90, ptr %2, align 4
  store i32 1, ptr %5, align 4
  br label %103

91:                                               ; preds = %78
  call void @llvm.lifetime.start.p0(i64 8, ptr %6) #5
  %92 = load ptr, ptr getelementptr inbounds nuw (%struct.UCaseProps, ptr @_ZL21ucase_props_singleton, i32 0, i32 2), align 8, !tbaa !26
  %93 = load i16, ptr %4, align 2, !tbaa !25
  %94 = zext i16 %93 to i32
  %95 = ashr i32 %94, 4
  %96 = sext i32 %95 to i64
  %97 = getelementptr inbounds i16, ptr %92, i64 %96
  store ptr %97, ptr %6, align 8, !tbaa !27
  %98 = load ptr, ptr %6, align 8, !tbaa !27
  %99 = load i16, ptr %98, align 2, !tbaa !25
  %100 = zext i16 %99 to i32
  %101 = ashr i32 %100, 7
  %102 = and i32 %101, 96
  store i32 %102, ptr %2, align 4
  store i32 1, ptr %5, align 4
  call void @llvm.lifetime.end.p0(i64 8, ptr %6) #5
  br label %103

103:                                              ; preds = %91, %87
  call void @llvm.lifetime.end.p0(i64 2, ptr %4) #5
  %104 = load i32, ptr %2, align 4
  ret i32 %104
}

; Function Attrs: mustprogress uwtable
define signext i8 @ucase_isSoftDotted_77(i32 noundef %0) #0 {
  %2 = alloca i32, align 4
  store i32 %0, ptr %2, align 4, !tbaa !11
  %3 = load i32, ptr %2, align 4, !tbaa !11
  %4 = call noundef i32 @_ZL10getDotTypei(i32 noundef %3)
  %5 = icmp eq i32 %4, 32
  %6 = zext i1 %5 to i8
  ret i8 %6
}