; Function Attrs: mustprogress nofree norecurse nosync nounwind willreturn memory(none) uwtable
define signext range(i8 0, 2) i8 @ucase_isSoftDotted_77(i32 noundef %0) local_unnamed_addr #3 {
  %2 = icmp ult i32 %0, 55296
  br i1 %2, label %3, label %5

3:                                                ; preds = %1
  %4 = lshr i32 %0, 5
  br label %.sink.split.i

5:                                                ; preds = %1
  %6 = icmp ult i32 %0, 65536
  br i1 %6, label %7, label %12

7:                                                ; preds = %5
  %8 = icmp samesign ult i32 %0, 56320
  %9 = select i1 %8, i32 320, i32 0
  %10 = lshr i32 %0, 5
  %11 = add nuw nsw i32 %9, %10
  br label %.sink.split.i

12:                                               ; preds = %5
  %13 = icmp ugt i32 %0, 1114111
  br i1 %13, label %34, label %14

14:                                               ; preds = %12
  %15 = icmp samesign ugt i32 %0, 919551
  br i1 %15, label %34, label %16

16:                                               ; preds = %14
  %17 = lshr i32 %0, 11
  %18 = zext nneg i32 %17 to i64
  %19 = getelementptr inbounds nuw i16, ptr @_ZL21ucase_props_trieIndex, i64 %18
  %20 = getelementptr inbounds nuw i8, ptr %19, i64 4160
  %21 = load i16, ptr %20, align 2, !tbaa !14
  %22 = zext i16 %21 to i32
  %23 = lshr i32 %0, 5
  %24 = and i32 %23, 63
  %25 = add nuw nsw i32 %24, %22
  br label %.sink.split.i

.sink.split.i:                                    ; preds = %16, %7, %3
  %.sink20.i = phi i32 [ %11, %7 ], [ %25, %16 ], [ %4, %3 ]
  %26 = zext nneg i32 %.sink20.i to i64
  %27 = getelementptr inbounds nuw i16, ptr @_ZL21ucase_props_trieIndex, i64 %26
  %28 = load i16, ptr %27, align 2, !tbaa !14
  %29 = zext i16 %28 to i32
  %30 = shl nuw nsw i32 %29, 2
  %31 = and i32 %0, 31
  %32 = add nuw nsw i32 %30, %31
  %33 = zext nneg i32 %32 to i64
  br label %34

34:                                               ; preds = %.sink.split.i, %14, %12
  %35 = phi i64 [ 3596, %12 ], [ 13368, %14 ], [ %33, %.sink.split.i ]
  %36 = getelementptr inbounds nuw i16, ptr @_ZL21ucase_props_trieIndex, i64 %35
  %37 = load i16, ptr %36, align 2, !tbaa !14
  %38 = zext i16 %37 to i32
  %39 = and i32 %38, 8
  %.not.i = icmp eq i32 %39, 0
  br i1 %.not.i, label %40, label %42

40:                                               ; preds = %34
  %41 = and i32 %38, 96
  br label %_ZL10getDotTypei.exit

42:                                               ; preds = %34
  %43 = lshr i32 %38, 4
  %44 = zext nneg i32 %43 to i64
  %45 = getelementptr inbounds nuw i16, ptr @_ZL22ucase_props_exceptions, i64 %44
  %46 = load i16, ptr %45, align 2, !tbaa !14
  %47 = lshr i16 %46, 7
  %48 = and i16 %47, 96
  %49 = zext nneg i16 %48 to i32
  br label %_ZL10getDotTypei.exit

_ZL10getDotTypei.exit:                            ; preds = %40, %42
  %.0.i = phi i32 [ %49, %42 ], [ %41, %40 ]
  %50 = icmp eq i32 %.0.i, 32
  %51 = zext i1 %50 to i8
  ret i8 %51
}